target datalayout = "e-m:e-p270:32:32-p271:32:32-p272:64:64-i64:64-i128:128-f80:128-n8:16:32:64-S128"
target triple = "x86_64-pc-linux-gnu"

%struct.dump_call_arg = type { i64, ptr, i32 }

; Function Attrs: nounwind sspstrong uwtable
define internal i32 @hash_each(i64 noundef %0, i64 noundef %1, i64 noundef %2) #0 {
  %4 = alloca i64, align 8
  %5 = alloca i64, align 8
  %6 = alloca i64, align 8
  %7 = alloca ptr, align 8
  store i64 %0, ptr %4, align 8, !tbaa !7
  store i64 %1, ptr %5, align 8, !tbaa !7
  store i64 %2, ptr %6, align 8, !tbaa !7
  call void @llvm.lifetime.start.p0(i64 8, ptr %7) #23
  %8 = load i64, ptr %6, align 8, !tbaa !7
  %9 = inttoptr i64 %8 to ptr
  store ptr %9, ptr %7, align 8, !tbaa !103
  %10 = load i64, ptr %4, align 8, !tbaa !7
  %11 = load ptr, ptr %7, align 8, !tbaa !103
  %12 = getelementptr inbounds nuw %struct.dump_call_arg, ptr %11, i32 0, i32 1
  %13 = load ptr, ptr %12, align 8, !tbaa !80
  %14 = load ptr, ptr %7, align 8, !tbaa !103
  %15 = getelementptr inbounds nuw %struct.dump_call_arg, ptr %14, i32 0, i32 2
  %16 = load i32, ptr %15, align 8, !tbaa !78
  call void @w_object(i64 noundef %10, ptr noundef %13, i32 noundef %16)
  %17 = load i64, ptr %5, align 8, !tbaa !7
  %18 = load ptr, ptr %7, align 8, !tbaa !103
  %19 = getelementptr inbounds nuw %struct.dump_call_arg, ptr %18, i32 0, i32 1
  %20 = load ptr, ptr %19, align 8, !tbaa !80
  %21 = load ptr, ptr %7, align 8, !tbaa !103
  %22 = getelementptr inbounds nuw %struct.dump_call_arg, ptr %21, i32 0, i32 2
  %23 = load i32, ptr %22, align 8, !tbaa !78
  call void @w_object(i64 noundef %17, ptr noundef %20, i32 noundef %23)
  call void @llvm.lifetime.end.p0(i64 8, ptr %7) #23
  ret i32 0
}