; Function Attrs: nounwind sspstrong uwtable
define internal noundef i32 @hash_each(i64 noundef %0, i64 noundef %1, i64 noundef %2) #0 {
  %4 = inttoptr i64 %2 to ptr
  %5 = getelementptr inbounds nuw i8, ptr %4, i64 8
  %6 = load ptr, ptr %5, align 8, !tbaa !69
  %7 = getelementptr inbounds nuw i8, ptr %4, i64 16
  %8 = load i32, ptr %7, align 8, !tbaa !65
  tail call fastcc void @w_object(i64 noundef %0, ptr noundef %6, i32 noundef %8)
  %9 = load ptr, ptr %5, align 8, !tbaa !69
  %10 = load i32, ptr %7, align 8, !tbaa !65
  tail call fastcc void @w_object(i64 noundef %1, ptr noundef %9, i32 noundef %10)
  ret i32 0
}